; Function Attrs: nounwind uwtable
define hidden noundef zeroext i1 @SDL_SaveFile_IO_REAL(ptr noundef %0, ptr noundef %1, i64 noundef %2, i1 noundef zeroext %3) local_unnamed_addr #0 {
  %.not = icmp eq ptr %0, null
  br i1 %.not, label %.thread, label %6

.thread:                                          ; preds = %4
  %5 = tail call zeroext i1 (ptr, ...) @SDL_SetError_REAL(ptr noundef nonnull @.str.2, ptr noundef nonnull @.str.14) #18
  br label %45

6:                                                ; preds = %4
  %7 = icmp eq ptr %1, null
  %8 = icmp ne i64 %2, 0
  %or.cond = and i1 %7, %8
  br i1 %or.cond, label %9, label %11

9:                                                ; preds = %6
  %10 = tail call zeroext i1 (ptr, ...) @SDL_SetError_REAL(ptr noundef nonnull @.str.2, ptr noundef nonnull @.str.16) #18
  br label %.loopexit

11:                                               ; preds = %6
  br i1 %8, label %.preheader, label %.loopexit

.preheader:                                       ; preds = %11
  %12 = getelementptr inbounds nuw i8, ptr %0, i64 32
  %13 = getelementptr inbounds nuw i8, ptr %0, i64 64
  %14 = getelementptr inbounds nuw i8, ptr %0, i64 56
  br label %.lr.ph.split.us.preheader

.lr.ph.split.us.preheader:                        ; preds = %SDL_WriteIO_REAL.exit, %.preheader
  %.021.ph48 = phi i64 [ 0, %.preheader ], [ %34, %SDL_WriteIO_REAL.exit ]
  %.022.ph47 = phi i64 [ 0, %.preheader ], [ %24, %SDL_WriteIO_REAL.exit ]
  br label %.lr.ph.split.us

.lr.ph.split.us:                                  ; preds = %.lr.ph.split.us.preheader, %33
  %.02235.us = phi i64 [ 0, %33 ], [ %.022.ph47, %.lr.ph.split.us.preheader ]
  %15 = getelementptr inbounds nuw i8, ptr %1, i64 %.02235.us
  %16 = sub i64 %2, %.02235.us
  %17 = load ptr, ptr %12, align 8
  %.not16.i.us = icmp eq ptr %17, null
  br i1 %.not16.i.us, label %29, label %18

18:                                               ; preds = %.lr.ph.split.us
  store i32 0, ptr %13, align 8
  %19 = tail call zeroext i1 @SDL_ClearError_REAL() #18
  %20 = icmp eq i64 %2, %.02235.us
  br i1 %20, label %SDL_GetIOStatus_REAL.exit.usthread-pre-split, label %21

21:                                               ; preds = %18
  %22 = load ptr, ptr %12, align 8
  %23 = load ptr, ptr %14, align 8
  %24 = tail call i64 %22(ptr noundef %23, ptr noundef %15, i64 noundef %16, ptr noundef nonnull %13) #18
  %25 = icmp eq i64 %24, 0
  br i1 %25, label %26, label %SDL_WriteIO_REAL.exit

26:                                               ; preds = %21
  %27 = load i32, ptr %13, align 8
  %28 = icmp eq i32 %27, 0
  br i1 %28, label %SDL_GetIOStatus_REAL.exit.us.thread, label %SDL_GetIOStatus_REAL.exit.us

SDL_GetIOStatus_REAL.exit.us.thread:              ; preds = %26
  store i32 1, ptr %13, align 8
  br label %.loopexit

29:                                               ; preds = %.lr.ph.split.us
  store i32 4, ptr %13, align 8
  %30 = tail call zeroext i1 (ptr, ...) @SDL_SetError_REAL(ptr noundef nonnull @.str.18) #18
  br label %SDL_GetIOStatus_REAL.exit.usthread-pre-split

SDL_GetIOStatus_REAL.exit.usthread-pre-split:     ; preds = %18, %29
  %.pr = load i32, ptr %13, align 8
  br label %SDL_GetIOStatus_REAL.exit.us

SDL_GetIOStatus_REAL.exit.us:                     ; preds = %SDL_GetIOStatus_REAL.exit.usthread-pre-split, %26
  %31 = phi i32 [ %.pr, %SDL_GetIOStatus_REAL.exit.usthread-pre-split ], [ %27, %26 ]
  %32 = icmp eq i32 %31, 3
  br i1 %32, label %33, label %.loopexit

33:                                               ; preds = %SDL_GetIOStatus_REAL.exit.us
  tail call void @SDL_Delay_REAL(i32 noundef 1) #18
  br label %.lr.ph.split.us

SDL_WriteIO_REAL.exit:                            ; preds = %21
  %34 = add i64 %24, %.021.ph48
  %35 = icmp ult i64 %34, %2
  br i1 %35, label %.lr.ph.split.us.preheader, label %.loopexit, !llvm.loop !8

.loopexit:                                        ; preds = %SDL_WriteIO_REAL.exit, %SDL_GetIOStatus_REAL.exit.us, %SDL_GetIOStatus_REAL.exit.us.thread, %11, %9
  %.0 = phi i1 [ true, %9 ], [ true, %11 ], [ false, %SDL_GetIOStatus_REAL.exit.us.thread ], [ false, %SDL_GetIOStatus_REAL.exit.us ], [ true, %SDL_WriteIO_REAL.exit ]
  br i1 %3, label %36, label %45

36:                                               ; preds = %.loopexit
  %37 = getelementptr inbounds nuw i8, ptr %0, i64 48
  %38 = load ptr, ptr %37, align 8
  %.not8.i = icmp eq ptr %38, null
  br i1 %.not8.i, label %SDL_CloseIO_REAL.exit, label %39

39:                                               ; preds = %36
  %40 = getelementptr inbounds nuw i8, ptr %0, i64 56
  %41 = load ptr, ptr %40, align 8
  %42 = tail call zeroext i1 %38(ptr noundef %41) #18
  br label %SDL_CloseIO_REAL.exit

SDL_CloseIO_REAL.exit:                            ; preds = %36, %39
  %43 = getelementptr inbounds nuw i8, ptr %0, i64 68
  %44 = load i32, ptr %43, align 4
  tail call void @SDL_DestroyProperties_REAL(i32 noundef %44) #18
  tail call void @SDL_free_REAL(ptr noundef nonnull %0) #18
  br label %45

45:                                               ; preds = %.thread, %SDL_CloseIO_REAL.exit, %.loopexit
  %.034 = phi i1 [ true, %.thread ], [ %.0, %SDL_CloseIO_REAL.exit ], [ %.0, %.loopexit ]
  ret i1 %.034
}